target datalayout = "e-m:e-p270:32:32-p271:32:32-p272:64:64-i64:64-i128:128-f80:128-n8:16:32:64-S128"
target triple = "x86_64-pc-linux-gnu"

%struct.Qureg = type { i32, i32, i32, i64, i64, i32, i32, %struct.ComplexArray, %struct.ComplexArray, %struct.ComplexArray, ptr, ptr, ptr, ptr, ptr, ptr }
%struct.ComplexArray = type { ptr, ptr }
%struct.Complex = type { double, double }

@__func__.getAmp = private unnamed_addr constant [7 x i8] c"getAmp\00", align 1

; Function Attrs: nounwind uwtable
define { double, double } @getAmp(ptr noundef byval(%struct.Qureg) align 8 %0, i64 noundef %1) #0 {
  %3 = alloca %struct.Complex, align 8
  %4 = alloca i64, align 8
  store i64 %1, ptr %4, align 8, !tbaa !22
  call void @validateStateVecQureg(ptr noundef byval(%struct.Qureg) align 8 %0, ptr noundef @__func__.getAmp)
  %5 = load i64, ptr %4, align 8, !tbaa !22
  call void @validateAmpIndex(ptr noundef byval(%struct.Qureg) align 8 %0, i64 noundef %5, ptr noundef @__func__.getAmp)
  %6 = load i64, ptr %4, align 8, !tbaa !22
  %7 = call double @statevec_getRealAmp(ptr noundef byval(%struct.Qureg) align 8 %0, i64 noundef %6)
  %8 = getelementptr inbounds nuw %struct.Complex, ptr %3, i32 0, i32 0
  store double %7, ptr %8, align 8, !tbaa !32
  %9 = load i64, ptr %4, align 8, !tbaa !22
  %10 = call double @statevec_getImagAmp(ptr noundef byval(%struct.Qureg) align 8 %0, i64 noundef %9)
  %11 = getelementptr inbounds nuw %struct.Complex, ptr %3, i32 0, i32 1
  store double %10, ptr %11, align 8, !tbaa !34
  %12 = load { double, double }, ptr %3, align 8
  ret { double, double } %12
}