; Function Attrs: nounwind uwtable
define { double, double } @getAmp(ptr noundef readonly byval(%struct.Qureg) align 8 captures(none) %0, i64 noundef %1) local_unnamed_addr #0 {
  tail call void @validateStateVecQureg(ptr noundef nonnull byval(%struct.Qureg) align 8 %0, ptr noundef nonnull @__func__.getAmp) #17
  tail call void @validateAmpIndex(ptr noundef nonnull byval(%struct.Qureg) align 8 %0, i64 noundef %1, ptr noundef nonnull @__func__.getAmp) #17
  %3 = tail call double @statevec_getRealAmp(ptr noundef nonnull byval(%struct.Qureg) align 8 %0, i64 noundef %1) #17
  %4 = tail call double @statevec_getImagAmp(ptr noundef nonnull byval(%struct.Qureg) align 8 %0, i64 noundef %1) #17
  %.fca.0.insert = insertvalue { double, double } poison, double %3, 0
  %.fca.1.insert = insertvalue { double, double } %.fca.0.insert, double %4, 1
  ret { double, double } %.fca.1.insert
}